target datalayout = "e-m:e-p270:32:32-p271:32:32-p272:64:64-i64:64-i128:128-f80:128-n8:16:32:64-S128"
target triple = "x86_64-pc-linux-gnu"

%"class.llvm::Value" = type { i8, i8, i16, i32, ptr, ptr }
%"class.llvm::DebugLoc" = type { %"class.llvm::TypedTrackingMDRef" }
%"class.llvm::TypedTrackingMDRef" = type { %"class.llvm::TrackingMDRef" }
%"class.llvm::TrackingMDRef" = type { ptr }
%"class.llvm::MachineInstrBuilder" = type { ptr, ptr }
%"class.llvm::Instruction" = type { %"class.llvm::User", %"class.llvm::ilist_node_with_parent.353", %"class.llvm::DebugLoc", i32, ptr }
%"class.llvm::User" = type { %"class.llvm::Value" }
%"class.llvm::ilist_node_with_parent.353" = type { %"class.llvm::ilist_node.354" }
%"class.llvm::ilist_node.354" = type { %"class.llvm::ilist_node_impl.339" }
%"class.llvm::ilist_node_impl.339" = type { %"class.llvm::ilist_node_base.340" }
%"class.llvm::ilist_node_base.340" = type { %"class.llvm::ilist_detail::node_base_prevnext.341", %"class.llvm::ilist_detail::node_base_parent.342" }
%"class.llvm::ilist_detail::node_base_prevnext.341" = type { ptr, ptr }
%"class.llvm::ilist_detail::node_base_parent.342" = type { ptr }
%"class.llvm::FenceInst" = type <{ %"class.llvm::Instruction", i8, [7 x i8] }>

; Function Attrs: mustprogress nounwind uwtable
define linkonce_odr hidden noundef i32 @_ZN4llvm17bitfields_details10CompressorIjLj3ELb1EE6unpackEj(i32 noundef %0) #1 comdat align 2 {
  %2 = alloca i32, align 4
  store i32 %0, ptr %2, align 4
  %3 = load i32, ptr %2, align 4
  ret i32 %3
}

; Function Attrs: mustprogress nounwind uwtable
define linkonce_odr hidden noundef i32 @_ZN4llvm17bitfields_details4ImplINS_8Bitfield7ElementINS_14AtomicOrderingELj0ELj3ELS4_7EEEtE7extractEt(i16 noundef zeroext %0) #1 comdat align 2 {
  %2 = alloca i16, align 2
  %3 = alloca i16, align 2
  store i16 %0, ptr %2, align 2
  %4 = load i16, ptr %2, align 2
  %5 = zext i16 %4 to i32
  %6 = and i32 %5, 7
  %7 = ashr i32 %6, 0
  %8 = trunc i32 %7 to i16
  store i16 %8, ptr %3, align 2
  %9 = load i16, ptr %3, align 2
  %10 = zext i16 %9 to i32
  %11 = call noundef i32 @_ZN4llvm17bitfields_details10CompressorIjLj3ELb1EE6unpackEj(i32 noundef %10)
  ret i32 %11
}

; Function Attrs: mustprogress nounwind uwtable
define linkonce_odr hidden noundef zeroext i16 @_ZNK4llvm5Value24getSubclassDataFromValueEv(ptr noundef nonnull align 8 dereferenceable(24) %0) #1 comdat align 2 {
  %2 = alloca ptr, align 8
  store ptr %0, ptr %2, align 8
  %3 = load ptr, ptr %2, align 8
  %4 = getelementptr inbounds nuw %"class.llvm::Value", ptr %3, i32 0, i32 2
  %5 = load i16, ptr %4, align 2
  ret i16 %5
}

; Function Attrs: mustprogress nounwind uwtable
define linkonce_odr hidden noundef i32 @_ZN4llvm8Bitfield3getINS0_7ElementINS_14AtomicOrderingELj0ELj3ELS3_7EEEtEENT_4TypeET0_(i16 noundef zeroext %0) #1 comdat align 2 {
  %2 = alloca i16, align 2
  store i16 %0, ptr %2, align 2
  %3 = load i16, ptr %2, align 2
  %4 = call noundef i32 @_ZN4llvm17bitfields_details4ImplINS_8Bitfield7ElementINS_14AtomicOrderingELj0ELj3ELS4_7EEEtE7extractEt(i16 noundef zeroext %3)
  ret i32 %4
}

; Function Attrs: mustprogress nounwind uwtable
define linkonce_odr hidden noundef zeroext i16 @_ZNK4llvm11Instruction24getSubclassDataFromValueEv(ptr noundef nonnull align 8 dereferenceable(72) %0) #1 comdat align 2 {
  %2 = alloca ptr, align 8
  store ptr %0, ptr %2, align 8
  %3 = load ptr, ptr %2, align 8
  %4 = call noundef zeroext i16 @_ZNK4llvm5Value24getSubclassDataFromValueEv(ptr noundef nonnull align 8 dereferenceable(24) %3)
  ret i16 %4
}

; Function Attrs: mustprogress nounwind uwtable
define linkonce_odr hidden noundef nonnull align 8 dereferenceable(73) ptr @_ZN4llvm16cast_convert_valINS_9FenceInstEKNS_4UserES3_E4doitERS3_(ptr noundef nonnull align 8 dereferenceable(24) %0) #1 comdat align 2 {
  %2 = alloca ptr, align 8
  store ptr %0, ptr %2, align 8
  %3 = load ptr, ptr %2, align 8
  ret ptr %3
}

; Function Attrs: mustprogress nounwind uwtable
define linkonce_odr hidden noundef i32 @_ZNK4llvm11Instruction15getSubclassDataINS_8Bitfield7ElementINS_14AtomicOrderingELj0ELj3ELS4_7EEEEENT_4TypeEv(ptr noundef nonnull align 8 dereferenceable(72) %0) #1 comdat align 2 {
  %2 = alloca ptr, align 8
  store ptr %0, ptr %2, align 8
  %3 = load ptr, ptr %2, align 8
  %4 = call noundef zeroext i16 @_ZNK4llvm11Instruction24getSubclassDataFromValueEv(ptr noundef nonnull align 8 dereferenceable(72) %3)
  %5 = call noundef i32 @_ZN4llvm8Bitfield3getINS0_7ElementINS_14AtomicOrderingELj0ELj3ELS3_7EEEtEENT_4TypeET0_(i16 noundef zeroext %4)
  ret i32 %5
}

; Function Attrs: mustprogress nounwind uwtable
define linkonce_odr hidden noundef nonnull align 8 dereferenceable(73) ptr @_ZN4llvm8CastInfoINS_9FenceInstEKNS_4UserEvE6doCastERS3_(ptr noundef nonnull align 8 dereferenceable(24) %0) #1 comdat align 2 {
  %2 = alloca ptr, align 8
  store ptr %0, ptr %2, align 8
  %3 = load ptr, ptr %2, align 8
  %4 = call noundef nonnull align 8 dereferenceable(73) ptr @_ZN4llvm16cast_convert_valINS_9FenceInstEKNS_4UserES3_E4doitERS3_(ptr noundef nonnull align 8 dereferenceable(24) %3)
  ret ptr %4
}

; Function Attrs: mustprogress nounwind uwtable
define linkonce_odr hidden noundef zeroext i8 @_ZNK4llvm9FenceInst14getSyncScopeIDEv(ptr noundef nonnull align 8 dereferenceable(73) %0) #1 comdat align 2 {
  %2 = alloca ptr, align 8
  store ptr %0, ptr %2, align 8
  %3 = load ptr, ptr %2, align 8
  %4 = getelementptr inbounds nuw %"class.llvm::FenceInst", ptr %3, i32 0, i32 1
  %5 = load i8, ptr %4, align 8
  ret i8 %5
}

; Function Attrs: mustprogress nounwind uwtable
define linkonce_odr hidden noundef i32 @_ZNK4llvm9FenceInst11getOrderingEv(ptr noundef nonnull align 8 dereferenceable(73) %0) #1 comdat align 2 {
  %2 = alloca ptr, align 8
  store ptr %0, ptr %2, align 8
  %3 = load ptr, ptr %2, align 8
  %4 = call noundef i32 @_ZNK4llvm11Instruction15getSubclassDataINS_8Bitfield7ElementINS_14AtomicOrderingELj0ELj3ELS4_7EEEEENT_4TypeEv(ptr noundef nonnull align 8 dereferenceable(72) %3)
  ret i32 %4
}

; Function Attrs: mustprogress nounwind uwtable
define linkonce_odr hidden noundef nonnull align 8 dereferenceable(73) ptr @_ZN4llvm4castINS_9FenceInstENS_4UserEEEDcRKT0_(ptr noundef nonnull align 8 dereferenceable(24) %0) #1 comdat {
  %2 = alloca ptr, align 8
  store ptr %0, ptr %2, align 8
  %3 = load ptr, ptr %2, align 8
  %4 = call noundef nonnull align 8 dereferenceable(73) ptr @_ZN4llvm8CastInfoINS_9FenceInstEKNS_4UserEvE6doCastERS3_(ptr noundef nonnull align 8 dereferenceable(24) %3)
  ret ptr %4
}

; Function Attrs: mustprogress nounwind uwtable
define dso_local noundef zeroext i1 @_ZN4llvm12IRTranslator14translateFenceERKNS_4UserERNS_16MachineIRBuilderE(ptr noundef nonnull align 8 dereferenceable(1848) %0, ptr noundef nonnull align 8 dereferenceable(24) %1, ptr noundef nonnull align 8 dereferenceable(88) %2) #1 align 2 {
  %4 = alloca ptr, align 8
  %5 = alloca ptr, align 8
  %6 = alloca ptr, align 8
  %7 = alloca ptr, align 8
  %8 = alloca %"class.llvm::MachineInstrBuilder", align 8
  store ptr %0, ptr %4, align 8
  store ptr %1, ptr %5, align 8
  store ptr %2, ptr %6, align 8
  %9 = load ptr, ptr %5, align 8
  %10 = call noundef nonnull align 8 dereferenceable(73) ptr @_ZN4llvm4castINS_9FenceInstENS_4UserEEEDcRKT0_(ptr noundef nonnull align 8 dereferenceable(24) %9)
  store ptr %10, ptr %7, align 8
  %11 = load ptr, ptr %6, align 8
  %12 = load ptr, ptr %7, align 8
  %13 = call noundef i32 @_ZNK4llvm9FenceInst11getOrderingEv(ptr noundef nonnull align 8 dereferenceable(73) %12)
  %14 = load ptr, ptr %7, align 8
  %15 = call noundef zeroext i8 @_ZNK4llvm9FenceInst14getSyncScopeIDEv(ptr noundef nonnull align 8 dereferenceable(73) %14)
  %16 = zext i8 %15 to i32
  %17 = call { ptr, ptr } @_ZN4llvm16MachineIRBuilder10buildFenceEjj(ptr noundef nonnull align 8 dereferenceable(88) %11, i32 noundef %13, i32 noundef %16)
  %18 = getelementptr inbounds nuw { ptr, ptr }, ptr %8, i32 0, i32 0
  %19 = extractvalue { ptr, ptr } %17, 0
  store ptr %19, ptr %18, align 8
  %20 = getelementptr inbounds nuw { ptr, ptr }, ptr %8, i32 0, i32 1
  %21 = extractvalue { ptr, ptr } %17, 1
  store ptr %21, ptr %20, align 8
  ret i1 true
}