; Function Attrs: mustprogress nounwind uwtable
define dso_local noundef zeroext i1 @_ZN4llvm12IRTranslator14translateFenceERKNS_4UserERNS_16MachineIRBuilderE(ptr nocapture noundef nonnull readnone align 8 dereferenceable(1848) %0, ptr nocapture noundef nonnull readonly align 8 dereferenceable(24) %1, ptr noundef nonnull align 8 dereferenceable(88) %2) local_unnamed_addr #0 align 2 {
  %4 = getelementptr inbounds nuw i8, ptr %1, i64 2
  %5 = load i16, ptr %4, align 2
  %6 = and i16 %5, 7
  %7 = zext nneg i16 %6 to i32
  %8 = getelementptr inbounds nuw i8, ptr %1, i64 72
  %9 = load i8, ptr %8, align 8
  %10 = zext i8 %9 to i32
  %11 = tail call { ptr, ptr } @_ZN4llvm16MachineIRBuilder10buildFenceEjj(ptr noundef nonnull align 8 dereferenceable(88) %2, i32 noundef %7, i32 noundef %10) #23
  ret i1 true
}